target datalayout = "e-m:e-p270:32:32-p271:32:32-p272:64:64-i64:64-i128:128-f80:128-n8:16:32:64-S128"
target triple = "x86_64-pc-linux-gnu"

%struct.H5T_t = type { %struct.H5O_shared_t, ptr, %struct.H5O_loc_t, %struct.H5G_name_t, ptr }
%struct.H5O_shared_t = type { i32, ptr, i32, %union.anon }
%union.anon = type { %struct.H5O_mesg_loc_t }
%struct.H5O_mesg_loc_t = type { i32, i64 }
%struct.H5O_loc_t = type { ptr, i64, i8 }
%struct.H5G_name_t = type { ptr, ptr, i32 }
%struct.H5T_shared_t = type { i64, i32, i32, i64, i32, i8, ptr, ptr, %union.anon.0 }
%union.anon.0 = type { %struct.H5T_array_t }
%struct.H5T_array_t = type { i64, i32, [32 x i64] }
%struct.H5T_atomic_t = type { i32, i64, i64, i32, i32, %union.anon.1 }
%union.anon.1 = type { %struct.anon.2 }
%struct.anon.2 = type { i64, i64, i64, i64, i64, i64, i32, i32 }

@H5_libterm_g = external global i8, align 1
@.str = private unnamed_addr constant [103 x i8] c"generated/home/dtcxzyw/WorkSpace/Projects/compilers/llvm-opt-benchmark/bench/hdf5/hdf5/src/H5Tprecis.c\00", align 1
@H5E_FUNC_g = external global i64, align 8
@H5E_CANTINIT_g = external global i64, align 8
@H5T_init_g = external global i8, align 1
@.str.2 = private unnamed_addr constant [32 x i8] c"interface initialization failed\00", align 1
@H5E_DATATYPE_g = external global i64, align 8
@__func__.H5T_get_precision = private unnamed_addr constant [18 x i8] c"H5T_get_precision\00", align 1
@.str.6 = private unnamed_addr constant [45 x i8] c"operation not defined for specified datatype\00", align 1

; Function Attrs: nounwind uwtable
define i64 @H5T_get_precision(ptr noundef %0) #0 {
  %2 = alloca ptr, align 8
  %3 = alloca i64, align 8
  %4 = alloca i8, align 1
  store ptr %0, ptr %2, align 8, !tbaa !11
  call void @llvm.lifetime.start.p0(i64 8, ptr %3) #5
  store i64 0, ptr %3, align 8, !tbaa !3
  call void @llvm.lifetime.start.p0(i64 1, ptr %4) #5
  store i8 0, ptr %4, align 1, !tbaa !7
  %5 = load i8, ptr @H5T_init_g, align 1, !tbaa !7, !range !9, !noundef !10
  %6 = trunc i8 %5 to i1
  br i1 %6, label %11, label %7

7:                                                ; preds = %1
  %8 = load i8, ptr @H5_libterm_g, align 1, !tbaa !7, !range !9, !noundef !10
  %9 = trunc i8 %8 to i1
  %10 = xor i1 %9, true
  br label %11

11:                                               ; preds = %7, %1
  %12 = phi i1 [ false, %1 ], [ %10, %7 ]
  %13 = xor i1 %12, true
  %14 = xor i1 %13, true
  %15 = zext i1 %14 to i32
  %16 = sext i32 %15 to i64
  %17 = call i64 @llvm.expect.i64(i64 %16, i64 0)
  %18 = icmp ne i64 %17, 0
  br i1 %18, label %19, label %42

19:                                               ; preds = %11
  store i8 1, ptr @H5T_init_g, align 1, !tbaa !7
  %20 = call i32 @H5T__init_package()
  %21 = icmp slt i32 %20, 0
  br i1 %21, label %22, label %41

22:                                               ; preds = %19
  store i8 0, ptr @H5T_init_g, align 1, !tbaa !7
  br label %23

23:                                               ; preds = %22
  br label %24

24:                                               ; preds = %23
  br label %25

25:                                               ; preds = %24
  %26 = load i64, ptr @H5E_FUNC_g, align 8, !tbaa !3
  %27 = load i64, ptr @H5E_CANTINIT_g, align 8, !tbaa !3
  %28 = call i32 (ptr, ptr, i32, i64, i64, ptr, ...) @H5E_printf_stack(ptr noundef @.str, ptr noundef @__func__.H5T_get_precision, i32 noundef 82, i64 noundef %26, i64 noundef %27, ptr noundef @.str.2)
  br label %29

29:                                               ; preds = %25
  br label %30

30:                                               ; preds = %29
  store i8 1, ptr %4, align 1, !tbaa !7
  %31 = load i8, ptr %4, align 1, !tbaa !7, !range !9, !noundef !10
  %32 = trunc i8 %31 to i1
  %33 = zext i1 %32 to i8
  store i8 %33, ptr %4, align 1, !tbaa !7
  br label %34

34:                                               ; preds = %30
  br label %35

35:                                               ; preds = %34
  br label %36

36:                                               ; preds = %35
  store i64 0, ptr %3, align 8, !tbaa !3
  br label %146

37:                                               ; No predecessors!
  br label %38

38:                                               ; preds = %37
  br label %39

39:                                               ; preds = %38
  br label %40

40:                                               ; preds = %39
  br label %41

41:                                               ; preds = %40, %19
  br label %42

42:                                               ; preds = %41, %11
  %43 = load i8, ptr @H5T_init_g, align 1, !tbaa !7, !range !9, !noundef !10
  %44 = trunc i8 %43 to i1
  br i1 %44, label %49, label %45

45:                                               ; preds = %42
  %46 = load i8, ptr @H5_libterm_g, align 1, !tbaa !7, !range !9, !noundef !10
  %47 = trunc i8 %46 to i1
  %48 = xor i1 %47, true
  br label %49

49:                                               ; preds = %45, %42
  %50 = phi i1 [ true, %42 ], [ %48, %45 ]
  %51 = xor i1 %50, true
  %52 = xor i1 %51, true
  %53 = zext i1 %52 to i32
  %54 = sext i32 %53 to i64
  %55 = call i64 @llvm.expect.i64(i64 %54, i64 1)
  %56 = icmp ne i64 %55, 0
  br i1 %56, label %57, label %147

57:                                               ; preds = %49
  br label %58

58:                                               ; preds = %65, %57
  %59 = load ptr, ptr %2, align 8, !tbaa !11
  %60 = getelementptr inbounds nuw %struct.H5T_t, ptr %59, i32 0, i32 1
  %61 = load ptr, ptr %60, align 8, !tbaa !14
  %62 = getelementptr inbounds nuw %struct.H5T_shared_t, ptr %61, i32 0, i32 6
  %63 = load ptr, ptr %62, align 8, !tbaa !24
  %64 = icmp ne ptr %63, null
  br i1 %64, label %65, label %71

65:                                               ; preds = %58
  %66 = load ptr, ptr %2, align 8, !tbaa !11
  %67 = getelementptr inbounds nuw %struct.H5T_t, ptr %66, i32 0, i32 1
  %68 = load ptr, ptr %67, align 8, !tbaa !14
  %69 = getelementptr inbounds nuw %struct.H5T_shared_t, ptr %68, i32 0, i32 6
  %70 = load ptr, ptr %69, align 8, !tbaa !24
  store ptr %70, ptr %2, align 8, !tbaa !11
  br label %58, !llvm.loop !26

71:                                               ; preds = %58
  %72 = load ptr, ptr %2, align 8, !tbaa !11
  %73 = getelementptr inbounds nuw %struct.H5T_t, ptr %72, i32 0, i32 1
  %74 = load ptr, ptr %73, align 8, !tbaa !14
  %75 = getelementptr inbounds nuw %struct.H5T_shared_t, ptr %74, i32 0, i32 2
  %76 = load i32, ptr %75, align 4, !tbaa !28
  %77 = icmp eq i32 %76, 6
  br i1 %77, label %120, label %78

78:                                               ; preds = %71
  %79 = load ptr, ptr %2, align 8, !tbaa !11
  %80 = getelementptr inbounds nuw %struct.H5T_t, ptr %79, i32 0, i32 1
  %81 = load ptr, ptr %80, align 8, !tbaa !14
  %82 = getelementptr inbounds nuw %struct.H5T_shared_t, ptr %81, i32 0, i32 2
  %83 = load i32, ptr %82, align 4, !tbaa !28
  %84 = icmp eq i32 %83, 8
  br i1 %84, label %120, label %85

85:                                               ; preds = %78
  %86 = load ptr, ptr %2, align 8, !tbaa !11
  %87 = getelementptr inbounds nuw %struct.H5T_t, ptr %86, i32 0, i32 1
  %88 = load ptr, ptr %87, align 8, !tbaa !14
  %89 = getelementptr inbounds nuw %struct.H5T_shared_t, ptr %88, i32 0, i32 2
  %90 = load i32, ptr %89, align 4, !tbaa !28
  %91 = icmp eq i32 %90, 9
  br i1 %91, label %120, label %92

92:                                               ; preds = %85
  %93 = load ptr, ptr %2, align 8, !tbaa !11
  %94 = getelementptr inbounds nuw %struct.H5T_t, ptr %93, i32 0, i32 1
  %95 = load ptr, ptr %94, align 8, !tbaa !14
  %96 = getelementptr inbounds nuw %struct.H5T_shared_t, ptr %95, i32 0, i32 2
  %97 = load i32, ptr %96, align 4, !tbaa !28
  %98 = icmp eq i32 %97, 10
  br i1 %98, label %120, label %99

99:                                               ; preds = %92
  %100 = load ptr, ptr %2, align 8, !tbaa !11
  %101 = getelementptr inbounds nuw %struct.H5T_t, ptr %100, i32 0, i32 1
  %102 = load ptr, ptr %101, align 8, !tbaa !14
  %103 = getelementptr inbounds nuw %struct.H5T_shared_t, ptr %102, i32 0, i32 2
  %104 = load i32, ptr %103, align 4, !tbaa !28
  %105 = icmp eq i32 %104, 7
  br i1 %105, label %120, label %106

106:                                              ; preds = %99
  %107 = load ptr, ptr %2, align 8, !tbaa !11
  %108 = getelementptr inbounds nuw %struct.H5T_t, ptr %107, i32 0, i32 1
  %109 = load ptr, ptr %108, align 8, !tbaa !14
  %110 = getelementptr inbounds nuw %struct.H5T_shared_t, ptr %109, i32 0, i32 2
  %111 = load i32, ptr %110, align 4, !tbaa !28
  %112 = icmp eq i32 %111, 11
  br i1 %112, label %120, label %113

113:                                              ; preds = %106
  %114 = load ptr, ptr %2, align 8, !tbaa !11
  %115 = getelementptr inbounds nuw %struct.H5T_t, ptr %114, i32 0, i32 1
  %116 = load ptr, ptr %115, align 8, !tbaa !14
  %117 = getelementptr inbounds nuw %struct.H5T_shared_t, ptr %116, i32 0, i32 2
  %118 = load i32, ptr %117, align 4, !tbaa !28
  %119 = icmp eq i32 %118, 5
  br i1 %119, label %120, label %139

120:                                              ; preds = %113, %106, %99, %92, %85, %78, %71
  br label %121

121:                                              ; preds = %120
  br label %122

122:                                              ; preds = %121
  br label %123

123:                                              ; preds = %122
  %124 = load i64, ptr @H5E_DATATYPE_g, align 8, !tbaa !3
  %125 = load i64, ptr @H5E_CANTINIT_g, align 8, !tbaa !3
  %126 = call i32 (ptr, ptr, i32, i64, i64, ptr, ...) @H5E_printf_stack(ptr noundef @.str, ptr noundef @__func__.H5T_get_precision, i32 noundef 88, i64 noundef %124, i64 noundef %125, ptr noundef @.str.6)
  br label %127

127:                                              ; preds = %123
  br label %128

128:                                              ; preds = %127
  store i8 1, ptr %4, align 1, !tbaa !7
  %129 = load i8, ptr %4, align 1, !tbaa !7, !range !9, !noundef !10
  %130 = trunc i8 %129 to i1
  %131 = zext i1 %130 to i8
  store i8 %131, ptr %4, align 1, !tbaa !7
  br label %132

132:                                              ; preds = %128
  br label %133

133:                                              ; preds = %132
  br label %134

134:                                              ; preds = %133
  store i64 0, ptr %3, align 8, !tbaa !3
  br label %146

135:                                              ; No predecessors!
  br label %136

136:                                              ; preds = %135
  br label %137

137:                                              ; preds = %136
  br label %138

138:                                              ; preds = %137
  br label %139

139:                                              ; preds = %138, %113
  %140 = load ptr, ptr %2, align 8, !tbaa !11
  %141 = getelementptr inbounds nuw %struct.H5T_t, ptr %140, i32 0, i32 1
  %142 = load ptr, ptr %141, align 8, !tbaa !14
  %143 = getelementptr inbounds nuw %struct.H5T_shared_t, ptr %142, i32 0, i32 8
  %144 = getelementptr inbounds nuw %struct.H5T_atomic_t, ptr %143, i32 0, i32 1
  %145 = load i64, ptr %144, align 8, !tbaa !29
  store i64 %145, ptr %3, align 8, !tbaa !3
  br label %146

146:                                              ; preds = %139, %134, %36
  br label %147

147:                                              ; preds = %146, %49
  %148 = load i64, ptr %3, align 8, !tbaa !3
  call void @llvm.lifetime.end.p0(i64 1, ptr %4) #5
  call void @llvm.lifetime.end.p0(i64 8, ptr %3) #5
  ret i64 %148
}