; Function Attrs: nounwind uwtable
define i64 @H5T_get_precision(ptr noundef readonly captures(none) %0) local_unnamed_addr #0 {
  %2 = load i8, ptr @H5T_init_g, align 1, !tbaa !3, !range !7, !noundef !8
  %3 = trunc nuw i8 %2 to i1
  %4 = load i8, ptr @H5_libterm_g, align 1, !range !7
  %5 = trunc nuw i8 %4 to i1
  %6 = select i1 %3, i1 true, i1 %5
  br i1 %6, label %14, label %7, !prof !9

7:                                                ; preds = %1
  store i8 1, ptr @H5T_init_g, align 1, !tbaa !3
  %8 = tail call i32 @H5T__init_package() #4
  %9 = icmp slt i32 %8, 0
  br i1 %9, label %10, label %._crit_edge

._crit_edge:                                      ; preds = %7
  %.pre = load i8, ptr @H5T_init_g, align 1, !tbaa !3, !range !7
  %.pre15 = load i8, ptr @H5_libterm_g, align 1, !range !7
  %.pre16 = trunc nuw i8 %.pre to i1
  %.pre17 = trunc nuw i8 %.pre15 to i1
  br label %14

10:                                               ; preds = %7
  store i8 0, ptr @H5T_init_g, align 1, !tbaa !3
  %11 = load i64, ptr @H5E_FUNC_g, align 8, !tbaa !11
  %12 = load i64, ptr @H5E_CANTINIT_g, align 8, !tbaa !11
  %13 = tail call i32 (ptr, ptr, i32, i64, i64, ptr, ...) @H5E_printf_stack(ptr noundef nonnull @.str, ptr noundef nonnull @__func__.H5T_get_precision, i32 noundef 82, i64 noundef %11, i64 noundef %12, ptr noundef nonnull @.str.2) #4
  br label %31

14:                                               ; preds = %._crit_edge, %1
  %.pre-phi18 = phi i1 [ %.pre17, %._crit_edge ], [ %5, %1 ]
  %.pre-phi = phi i1 [ %.pre16, %._crit_edge ], [ %3, %1 ]
  %15 = xor i1 %.pre-phi18, true
  %16 = select i1 %.pre-phi, i1 true, i1 %15
  br i1 %16, label %.preheader, label %31, !prof !9

.preheader:                                       ; preds = %14, %.preheader
  %.012 = phi ptr [ %20, %.preheader ], [ %0, %14 ]
  %17 = getelementptr inbounds nuw i8, ptr %.012, i64 40
  %18 = load ptr, ptr %17, align 8, !tbaa !14
  %19 = getelementptr inbounds nuw i8, ptr %18, i64 32
  %20 = load ptr, ptr %19, align 8, !tbaa !25
  %.not = icmp eq ptr %20, null
  br i1 %.not, label %21, label %.preheader, !llvm.loop !28

21:                                               ; preds = %.preheader
  %22 = getelementptr inbounds nuw i8, ptr %18, i64 12
  %23 = load i32, ptr %22, align 4, !tbaa !30
  %.off = add i32 %23, -5
  %switch = icmp ult i32 %.off, 7
  br i1 %switch, label %24, label %28

24:                                               ; preds = %21
  %25 = load i64, ptr @H5E_DATATYPE_g, align 8, !tbaa !11
  %26 = load i64, ptr @H5E_CANTINIT_g, align 8, !tbaa !11
  %27 = tail call i32 (ptr, ptr, i32, i64, i64, ptr, ...) @H5E_printf_stack(ptr noundef nonnull @.str, ptr noundef nonnull @__func__.H5T_get_precision, i32 noundef 88, i64 noundef %25, i64 noundef %26, ptr noundef nonnull @.str.6) #4
  br label %31

28:                                               ; preds = %21
  %29 = getelementptr inbounds nuw i8, ptr %18, i64 56
  %30 = load i64, ptr %29, align 8, !tbaa !31
  br label %31

31:                                               ; preds = %10, %24, %28, %14
  %.0 = phi i64 [ 0, %10 ], [ 0, %24 ], [ %30, %28 ], [ 0, %14 ]
  ret i64 %.0
}